; Function Attrs: nounwind uwtable
define ptr @l_Lake_mkMessageStringCore___lambda__2(ptr noundef %0, ptr readnone captures(none) %1) local_unnamed_addr #0 {
lean_nat_eq.exit:
  %2 = load ptr, ptr @l_Lake_mkMessageStringCore___lambda__2___closed__1, align 8, !tbaa !4
  %3 = getelementptr i8, ptr %0, i64 8
  %.val = load i64, ptr %3, align 8, !tbaa !12
  %4 = shl i64 %.val, 1
  %5 = add i64 %4, -1
  %.not = icmp eq i64 %5, 1
  br i1 %.not, label %.sink.split, label %lean_dec.exit31

lean_dec.exit31:                                  ; preds = %lean_nat_eq.exit
  %6 = inttoptr i64 %5 to ptr
  %7 = tail call ptr @lean_string_utf8_prev(ptr noundef nonnull %0, ptr noundef nonnull %6) #3
  %8 = tail call i32 @lean_string_utf8_get(ptr noundef nonnull %0, ptr noundef %7) #3
  %9 = ptrtoint ptr %7 to i64
  %10 = and i64 %9, 1
  %.not36 = icmp eq i64 %10, 0
  br i1 %.not36, label %11, label %lean_dec.exit30

11:                                               ; preds = %lean_dec.exit31
  %12 = load i32, ptr %7, align 4, !tbaa !8
  %13 = icmp sgt i32 %12, 1
  br i1 %13, label %14, label %16, !prof !11

14:                                               ; preds = %11
  %15 = add nsw i32 %12, -1
  store i32 %15, ptr %7, align 4, !tbaa !8
  br label %lean_dec.exit30

16:                                               ; preds = %11
  %.not.i32 = icmp eq i32 %12, 0
  br i1 %.not.i32, label %lean_dec.exit30, label %17

17:                                               ; preds = %16
  tail call void @lean_dec_ref_cold(ptr noundef nonnull %7) #3
  br label %lean_dec.exit30

lean_dec.exit30:                                  ; preds = %17, %16, %14, %lean_dec.exit31
  %.not37 = icmp eq i32 %8, 10
  br i1 %.not37, label %20, label %.sink.split

.sink.split:                                      ; preds = %lean_nat_eq.exit, %lean_dec.exit30
  %18 = load ptr, ptr @l_Lake_mkMessageStringCore___lambda__2___closed__2, align 8, !tbaa !4
  %19 = tail call ptr @lean_string_append(ptr noundef nonnull %0, ptr noundef %18) #3
  br label %20

20:                                               ; preds = %.sink.split, %lean_dec.exit30
  %.sink = phi ptr [ %0, %lean_dec.exit30 ], [ %19, %.sink.split ]
  %21 = tail call ptr @lean_apply_2(ptr noundef %2, ptr noundef %.sink, ptr noundef nonnull inttoptr (i64 1 to ptr)) #3
  ret ptr %21
}